target datalayout = "e-m:e-p270:32:32-p271:32:32-p272:64:64-i64:64-i128:128-f80:128-n8:16:32:64-S128"
target triple = "x86_64-pc-linux-gnu"

%struct.MXFMetadataSet = type { [16 x i8], i64 }
%struct.MXFSequence = type { %struct.MXFMetadataSet, [16 x i8], ptr, i32, i64, i8 }

; Function Attrs: nounwind uwtable
define internal i32 @mxf_read_sequence(ptr noundef %0, ptr noundef %1, i32 noundef %2, i32 noundef %3, ptr noundef %4, i64 noundef %5) #0 {
  %7 = alloca i32, align 4
  %8 = alloca ptr, align 8
  %9 = alloca ptr, align 8
  %10 = alloca i32, align 4
  %11 = alloca i32, align 4
  %12 = alloca ptr, align 8
  %13 = alloca i64, align 8
  %14 = alloca ptr, align 8
  %15 = alloca i32, align 4
  store ptr %0, ptr %8, align 8, !tbaa !90
  store ptr %1, ptr %9, align 8, !tbaa !138
  store i32 %2, ptr %10, align 4, !tbaa !47
  store i32 %3, ptr %11, align 4, !tbaa !47
  store ptr %4, ptr %12, align 8, !tbaa !13
  store i64 %5, ptr %13, align 8, !tbaa !37
  call void @llvm.lifetime.start.p0(i64 8, ptr %14) #13
  %16 = load ptr, ptr %8, align 8, !tbaa !90
  store ptr %16, ptr %14, align 8, !tbaa !299
  %17 = load i32, ptr %10, align 4, !tbaa !47
  switch i32 %17, label %42 [
    i32 514, label %18
    i32 513, label %23
    i32 19202, label %29
    i32 4097, label %35
  ]

18:                                               ; preds = %6
  %19 = load ptr, ptr %9, align 8, !tbaa !138
  %20 = call i64 @avio_rb64(ptr noundef %19)
  %21 = load ptr, ptr %14, align 8, !tbaa !299
  %22 = getelementptr inbounds nuw %struct.MXFSequence, ptr %21, i32 0, i32 4
  store i64 %20, ptr %22, align 8, !tbaa !300
  br label %42

23:                                               ; preds = %6
  %24 = load ptr, ptr %9, align 8, !tbaa !138
  %25 = load ptr, ptr %14, align 8, !tbaa !299
  %26 = getelementptr inbounds nuw %struct.MXFSequence, ptr %25, i32 0, i32 1
  %27 = getelementptr inbounds [16 x i8], ptr %26, i64 0, i64 0
  %28 = call i32 @avio_read(ptr noundef %24, ptr noundef %27, i32 noundef 16)
  br label %42

29:                                               ; preds = %6
  %30 = load ptr, ptr %9, align 8, !tbaa !138
  %31 = call i32 @avio_r8(ptr noundef %30)
  %32 = trunc i32 %31 to i8
  %33 = load ptr, ptr %14, align 8, !tbaa !299
  %34 = getelementptr inbounds nuw %struct.MXFSequence, ptr %33, i32 0, i32 5
  store i8 %32, ptr %34, align 8, !tbaa !223
  br label %42

35:                                               ; preds = %6
  %36 = load ptr, ptr %9, align 8, !tbaa !138
  %37 = load ptr, ptr %14, align 8, !tbaa !299
  %38 = getelementptr inbounds nuw %struct.MXFSequence, ptr %37, i32 0, i32 2
  %39 = load ptr, ptr %14, align 8, !tbaa !299
  %40 = getelementptr inbounds nuw %struct.MXFSequence, ptr %39, i32 0, i32 3
  %41 = call i32 @mxf_read_strong_ref_array(ptr noundef %36, ptr noundef %38, ptr noundef %40)
  store i32 %41, ptr %7, align 4
  store i32 1, ptr %15, align 4
  br label %43

42:                                               ; preds = %6, %29, %23, %18
  store i32 0, ptr %7, align 4
  store i32 1, ptr %15, align 4
  br label %43

43:                                               ; preds = %42, %35
  call void @llvm.lifetime.end.p0(i64 8, ptr %14) #13
  %44 = load i32, ptr %7, align 4
  ret i32 %44
}