; Function Attrs: nounwind uwtable
define internal i32 @mxf_read_sequence(ptr noundef %0, ptr noundef %1, i32 noundef %2, i32 %3, ptr readnone captures(none) %4, i64 %5) #1 {
  switch i32 %2, label %21 [
    i32 514, label %7
    i32 513, label %10
    i32 19202, label %13
    i32 4097, label %17
  ]

7:                                                ; preds = %6
  %8 = tail call i64 @avio_rb64(ptr noundef %1) #15
  %9 = getelementptr inbounds nuw i8, ptr %0, i64 56
  store i64 %8, ptr %9, align 8, !tbaa !334
  br label %21

10:                                               ; preds = %6
  %11 = getelementptr inbounds nuw i8, ptr %0, i64 24
  %12 = tail call i32 @avio_read(ptr noundef %1, ptr noundef nonnull %11, i32 noundef 16) #15
  br label %21

13:                                               ; preds = %6
  %14 = tail call i32 @avio_r8(ptr noundef %1) #15
  %15 = trunc i32 %14 to i8
  %16 = getelementptr inbounds nuw i8, ptr %0, i64 64
  store i8 %15, ptr %16, align 8, !tbaa !176
  br label %21

17:                                               ; preds = %6
  %18 = getelementptr inbounds nuw i8, ptr %0, i64 40
  %19 = getelementptr inbounds nuw i8, ptr %0, i64 48
  %20 = tail call fastcc i32 @mxf_read_strong_ref_array(ptr noundef %1, ptr noundef nonnull %18, ptr noundef nonnull %19)
  br label %21

21:                                               ; preds = %6, %7, %10, %13, %17
  %.0 = phi i32 [ %20, %17 ], [ 0, %13 ], [ 0, %10 ], [ 0, %7 ], [ 0, %6 ]
  ret i32 %.0
}